target datalayout = "e-m:e-p270:32:32-p271:32:32-p272:64:64-i64:64-i128:128-f80:128-n8:16:32:64-S128"
target triple = "x86_64-pc-linux-gnu"

%struct.Scheduler = type { ptr, ptr, i32, ptr, i32, i32, %union.pthread_mutex_t, i32, i32, %union.pthread_mutex_t, %union.pthread_cond_t, ptr, i32, ptr, i32, ptr, i32, ptr, i32, ptr, i32, i32, i32, %union.pthread_mutex_t, i64 }
%union.pthread_cond_t = type { %struct.__pthread_cond_s }
%struct.__pthread_cond_s = type { %union.__atomic_wide_counter, %union.__atomic_wide_counter, [2 x i32], [2 x i32], i32, i32, [2 x i32] }
%union.__atomic_wide_counter = type { i64 }
%union.pthread_mutex_t = type { %struct.__pthread_mutex_s }
%struct.__pthread_mutex_s = type { i32, i32, i32, i32, i32, i16, i16, %struct.__pthread_internal_list }
%struct.__pthread_internal_list = type { ptr, ptr }
%struct.SchTask = type { ptr, %struct.SchedulerNode, ptr, ptr, i64, i32 }
%struct.SchedulerNode = type { i32, i32, i32 }
%struct.SchMux = type { ptr, ptr, i32, i32, ptr, %struct.SchTask, i32, ptr, i32, ptr }
%struct.SchDec = type { ptr, %struct.SchedulerNode, ptr, i32, %struct.SchTask, ptr, ptr, i32, ptr }
%struct.SchEnc = type { ptr, %struct.SchedulerNode, ptr, ptr, i32, [2 x i32], ptr, i32, %struct.SchTask, ptr, i32, ptr }

@.str = private unnamed_addr constant [30 x i8] c"Assertion %s failed at %s:%d\0A\00", align 1
@.str.2 = private unnamed_addr constant [23 x i8] c"fftools/ffmpeg_sched.c\00", align 1
@.str.6 = private unnamed_addr constant [22 x i8] c"enc_idx < sch->nb_enc\00", align 1

; Function Attrs: nounwind uwtable
define internal i32 @enc_send_to_dst(ptr noundef %0, i64 %1, i32 %2, ptr noundef %3, ptr noundef %4) #0 {
  %6 = alloca i32, align 4
  %7 = alloca %struct.SchedulerNode, align 4
  %8 = alloca { i64, i32 }, align 4
  %9 = alloca ptr, align 8
  %10 = alloca ptr, align 8
  %11 = alloca ptr, align 8
  %12 = alloca i32, align 4
  %13 = alloca i32, align 4
  %14 = getelementptr inbounds nuw { i64, i32 }, ptr %8, i32 0, i32 0
  store i64 %1, ptr %14, align 4
  %15 = getelementptr inbounds nuw { i64, i32 }, ptr %8, i32 0, i32 1
  store i32 %2, ptr %15, align 4
  call void @llvm.memcpy.p0.p0.i64(ptr align 4 %7, ptr align 4 %8, i64 12, i1 false)
  store ptr %0, ptr %9, align 8, !tbaa !10
  store ptr %3, ptr %10, align 8, !tbaa !95
  store ptr %4, ptr %11, align 8, !tbaa !208
  call void @llvm.lifetime.start.p0(i64 4, ptr %12) #9
  %16 = load ptr, ptr %10, align 8, !tbaa !95
  %17 = load i8, ptr %16, align 1, !tbaa !111
  %18 = icmp ne i8 %17, 0
  br i1 %18, label %19, label %20

19:                                               ; preds = %5
  store i32 -541478725, ptr %6, align 4
  store i32 1, ptr %13, align 4
  br label %88

20:                                               ; preds = %5
  %21 = load ptr, ptr %11, align 8, !tbaa !208
  %22 = icmp ne ptr %21, null
  br i1 %22, label %24, label %23

23:                                               ; preds = %20
  br label %60

24:                                               ; preds = %20
  %25 = getelementptr inbounds nuw %struct.SchedulerNode, ptr %7, i32 0, i32 0
  %26 = load i32, ptr %25, align 4, !tbaa !136
  %27 = icmp eq i32 %26, 2
  br i1 %27, label %28, label %41

28:                                               ; preds = %24
  %29 = load ptr, ptr %9, align 8, !tbaa !10
  %30 = load ptr, ptr %9, align 8, !tbaa !10
  %31 = getelementptr inbounds nuw %struct.Scheduler, ptr %30, i32 0, i32 3
  %32 = load ptr, ptr %31, align 8, !tbaa !40
  %33 = getelementptr inbounds nuw %struct.SchedulerNode, ptr %7, i32 0, i32 1
  %34 = load i32, ptr %33, align 4, !tbaa !137
  %35 = zext i32 %34 to i64
  %36 = getelementptr inbounds nuw %struct.SchMux, ptr %32, i64 %35
  %37 = getelementptr inbounds nuw %struct.SchedulerNode, ptr %7, i32 0, i32 2
  %38 = load i32, ptr %37, align 4, !tbaa !138
  %39 = load ptr, ptr %11, align 8, !tbaa !208
  %40 = call i32 @send_to_mux(ptr noundef %29, ptr noundef %36, i32 noundef %38, ptr noundef %39)
  br label %53

41:                                               ; preds = %24
  %42 = load ptr, ptr %9, align 8, !tbaa !10
  %43 = getelementptr inbounds nuw %struct.Scheduler, ptr %42, i32 0, i32 11
  %44 = load ptr, ptr %43, align 8, !tbaa !57
  %45 = getelementptr inbounds nuw %struct.SchedulerNode, ptr %7, i32 0, i32 1
  %46 = load i32, ptr %45, align 4, !tbaa !137
  %47 = zext i32 %46 to i64
  %48 = getelementptr inbounds nuw %struct.SchDec, ptr %44, i64 %47
  %49 = getelementptr inbounds nuw %struct.SchDec, ptr %48, i32 0, i32 5
  %50 = load ptr, ptr %49, align 8, !tbaa !219
  %51 = load ptr, ptr %11, align 8, !tbaa !208
  %52 = call i32 @tq_send(ptr noundef %50, i32 noundef 0, ptr noundef %51)
  br label %53

53:                                               ; preds = %41, %28
  %54 = phi i32 [ %40, %28 ], [ %52, %41 ]
  store i32 %54, ptr %12, align 4, !tbaa !12
  %55 = load i32, ptr %12, align 4, !tbaa !12
  %56 = icmp eq i32 %55, -541478725
  br i1 %56, label %57, label %58

57:                                               ; preds = %53
  br label %60

58:                                               ; preds = %53
  %59 = load i32, ptr %12, align 4, !tbaa !12
  store i32 %59, ptr %6, align 4
  store i32 1, ptr %13, align 4
  br label %88

60:                                               ; preds = %57, %23
  %61 = getelementptr inbounds nuw %struct.SchedulerNode, ptr %7, i32 0, i32 0
  %62 = load i32, ptr %61, align 4, !tbaa !136
  %63 = icmp eq i32 %62, 2
  br i1 %63, label %64, label %76

64:                                               ; preds = %60
  %65 = load ptr, ptr %9, align 8, !tbaa !10
  %66 = load ptr, ptr %9, align 8, !tbaa !10
  %67 = getelementptr inbounds nuw %struct.Scheduler, ptr %66, i32 0, i32 3
  %68 = load ptr, ptr %67, align 8, !tbaa !40
  %69 = getelementptr inbounds nuw %struct.SchedulerNode, ptr %7, i32 0, i32 1
  %70 = load i32, ptr %69, align 4, !tbaa !137
  %71 = zext i32 %70 to i64
  %72 = getelementptr inbounds nuw %struct.SchMux, ptr %68, i64 %71
  %73 = getelementptr inbounds nuw %struct.SchedulerNode, ptr %7, i32 0, i32 2
  %74 = load i32, ptr %73, align 4, !tbaa !138
  %75 = call i32 @send_to_mux(ptr noundef %65, ptr noundef %72, i32 noundef %74, ptr noundef null)
  br label %86

76:                                               ; preds = %60
  %77 = load ptr, ptr %9, align 8, !tbaa !10
  %78 = getelementptr inbounds nuw %struct.Scheduler, ptr %77, i32 0, i32 11
  %79 = load ptr, ptr %78, align 8, !tbaa !57
  %80 = getelementptr inbounds nuw %struct.SchedulerNode, ptr %7, i32 0, i32 1
  %81 = load i32, ptr %80, align 4, !tbaa !137
  %82 = zext i32 %81 to i64
  %83 = getelementptr inbounds nuw %struct.SchDec, ptr %79, i64 %82
  %84 = getelementptr inbounds nuw %struct.SchDec, ptr %83, i32 0, i32 5
  %85 = load ptr, ptr %84, align 8, !tbaa !219
  call void @tq_send_finish(ptr noundef %85, i32 noundef 0)
  br label %86

86:                                               ; preds = %76, %64
  %87 = load ptr, ptr %10, align 8, !tbaa !95
  store i8 1, ptr %87, align 1, !tbaa !111
  store i32 -541478725, ptr %6, align 4
  store i32 1, ptr %13, align 4
  br label %88

88:                                               ; preds = %86, %58, %19
  call void @llvm.lifetime.end.p0(i64 4, ptr %12) #9
  %89 = load i32, ptr %6, align 4
  ret i32 %89
}

; Function Attrs: nounwind uwtable
define i32 @sch_enc_send(ptr noundef %0, i32 noundef %1, ptr noundef %2) #0 {
  %4 = alloca i32, align 4
  %5 = alloca ptr, align 8
  %6 = alloca i32, align 4
  %7 = alloca ptr, align 8
  %8 = alloca ptr, align 8
  %9 = alloca i32, align 4
  %10 = alloca i32, align 4
  %11 = alloca i32, align 4
  %12 = alloca ptr, align 8
  %13 = alloca ptr, align 8
  %14 = alloca { i64, i32 }, align 4
  store ptr %0, ptr %5, align 8, !tbaa !10
  store i32 %1, ptr %6, align 4, !tbaa !12
  store ptr %2, ptr %7, align 8, !tbaa !208
  call void @llvm.lifetime.start.p0(i64 8, ptr %8) #9
  call void @llvm.lifetime.start.p0(i64 4, ptr %9) #9
  br label %15

15:                                               ; preds = %3
  %16 = load i32, ptr %6, align 4, !tbaa !12
  %17 = load ptr, ptr %5, align 8, !tbaa !10
  %18 = getelementptr inbounds nuw %struct.Scheduler, ptr %17, i32 0, i32 14
  %19 = load i32, ptr %18, align 8, !tbaa !68
  %20 = icmp ult i32 %16, %19
  br i1 %20, label %22, label %21

21:                                               ; preds = %15
  call void (ptr, i32, ptr, ...) @av_log(ptr noundef null, i32 noundef 0, ptr noundef @.str, ptr noundef @.str.6, ptr noundef @.str.2, i32 noundef 2351)
  call void @abort() #10
  unreachable

22:                                               ; preds = %15
  br label %23

23:                                               ; preds = %22
  br label %24

24:                                               ; preds = %23
  %25 = load ptr, ptr %5, align 8, !tbaa !10
  %26 = getelementptr inbounds nuw %struct.Scheduler, ptr %25, i32 0, i32 13
  %27 = load ptr, ptr %26, align 8, !tbaa !69
  %28 = load i32, ptr %6, align 4, !tbaa !12
  %29 = zext i32 %28 to i64
  %30 = getelementptr inbounds nuw %struct.SchEnc, ptr %27, i64 %29
  store ptr %30, ptr %8, align 8, !tbaa !70
  call void @llvm.lifetime.start.p0(i64 4, ptr %10) #9
  store i32 0, ptr %10, align 4, !tbaa !12
  br label %31

31:                                               ; preds = %92, %24
  %32 = load i32, ptr %10, align 4, !tbaa !12
  %33 = load ptr, ptr %8, align 8, !tbaa !70
  %34 = getelementptr inbounds nuw %struct.SchEnc, ptr %33, i32 0, i32 4
  %35 = load i32, ptr %34, align 8, !tbaa !155
  %36 = icmp ult i32 %32, %35
  br i1 %36, label %38, label %37

37:                                               ; preds = %31
  store i32 4, ptr %11, align 4
  br label %95

38:                                               ; preds = %31
  call void @llvm.lifetime.start.p0(i64 8, ptr %12) #9
  %39 = load ptr, ptr %8, align 8, !tbaa !70
  %40 = getelementptr inbounds nuw %struct.SchEnc, ptr %39, i32 0, i32 3
  %41 = load ptr, ptr %40, align 8, !tbaa !177
  %42 = load i32, ptr %10, align 4, !tbaa !12
  %43 = zext i32 %42 to i64
  %44 = getelementptr inbounds nuw i8, ptr %41, i64 %43
  store ptr %44, ptr %12, align 8, !tbaa !95
  call void @llvm.lifetime.start.p0(i64 8, ptr %13) #9
  %45 = load ptr, ptr %7, align 8, !tbaa !208
  store ptr %45, ptr %13, align 8, !tbaa !208
  %46 = load i32, ptr %10, align 4, !tbaa !12
  %47 = load ptr, ptr %8, align 8, !tbaa !70
  %48 = getelementptr inbounds nuw %struct.SchEnc, ptr %47, i32 0, i32 4
  %49 = load i32, ptr %48, align 8, !tbaa !155
  %50 = sub i32 %49, 1
  %51 = icmp ult i32 %46, %50
  br i1 %51, label %52, label %64

52:                                               ; preds = %38
  %53 = load ptr, ptr %8, align 8, !tbaa !70
  %54 = getelementptr inbounds nuw %struct.SchEnc, ptr %53, i32 0, i32 11
  %55 = load ptr, ptr %54, align 8, !tbaa !121
  store ptr %55, ptr %13, align 8, !tbaa !208
  %56 = load ptr, ptr %13, align 8, !tbaa !208
  %57 = load ptr, ptr %7, align 8, !tbaa !208
  %58 = call i32 @av_packet_ref(ptr noundef %56, ptr noundef %57)
  store i32 %58, ptr %9, align 4, !tbaa !12
  %59 = load i32, ptr %9, align 4, !tbaa !12
  %60 = icmp slt i32 %59, 0
  br i1 %60, label %61, label %63

61:                                               ; preds = %52
  %62 = load i32, ptr %9, align 4, !tbaa !12
  store i32 %62, ptr %4, align 4
  store i32 1, ptr %11, align 4
  br label %89

63:                                               ; preds = %52
  br label %64

64:                                               ; preds = %63, %38
  %65 = load ptr, ptr %5, align 8, !tbaa !10
  %66 = load ptr, ptr %8, align 8, !tbaa !70
  %67 = getelementptr inbounds nuw %struct.SchEnc, ptr %66, i32 0, i32 2
  %68 = load ptr, ptr %67, align 8, !tbaa !156
  %69 = load i32, ptr %10, align 4, !tbaa !12
  %70 = zext i32 %69 to i64
  %71 = getelementptr inbounds nuw %struct.SchedulerNode, ptr %68, i64 %70
  %72 = load ptr, ptr %12, align 8, !tbaa !95
  %73 = load ptr, ptr %13, align 8, !tbaa !208
  call void @llvm.memcpy.p0.p0.i64(ptr align 4 %14, ptr align 4 %71, i64 12, i1 false)
  %74 = getelementptr inbounds nuw { i64, i32 }, ptr %14, i32 0, i32 0
  %75 = load i64, ptr %74, align 4
  %76 = getelementptr inbounds nuw { i64, i32 }, ptr %14, i32 0, i32 1
  %77 = load i32, ptr %76, align 4
  %78 = call i32 @enc_send_to_dst(ptr noundef %65, i64 %75, i32 %77, ptr noundef %72, ptr noundef %73)
  store i32 %78, ptr %9, align 4, !tbaa !12
  %79 = load i32, ptr %9, align 4, !tbaa !12
  %80 = icmp slt i32 %79, 0
  br i1 %80, label %81, label %88

81:                                               ; preds = %64
  %82 = load ptr, ptr %13, align 8, !tbaa !208
  call void @av_packet_unref(ptr noundef %82)
  %83 = load i32, ptr %9, align 4, !tbaa !12
  %84 = icmp eq i32 %83, -541478725
  br i1 %84, label %85, label %86

85:                                               ; preds = %81
  store i32 6, ptr %11, align 4
  br label %89

86:                                               ; preds = %81
  %87 = load i32, ptr %9, align 4, !tbaa !12
  store i32 %87, ptr %4, align 4
  store i32 1, ptr %11, align 4
  br label %89

88:                                               ; preds = %64
  store i32 0, ptr %11, align 4
  br label %89

89:                                               ; preds = %88, %86, %85, %61
  call void @llvm.lifetime.end.p0(i64 8, ptr %13) #9
  call void @llvm.lifetime.end.p0(i64 8, ptr %12) #9
  %90 = load i32, ptr %11, align 4
  switch i32 %90, label %95 [
    i32 0, label %91
    i32 6, label %92
  ]

91:                                               ; preds = %89
  br label %92

92:                                               ; preds = %91, %89
  %93 = load i32, ptr %10, align 4, !tbaa !12
  %94 = add i32 %93, 1
  store i32 %94, ptr %10, align 4, !tbaa !12
  br label %31, !llvm.loop !236

95:                                               ; preds = %89, %37
  call void @llvm.lifetime.end.p0(i64 4, ptr %10) #9
  %96 = load i32, ptr %11, align 4
  switch i32 %96, label %98 [
    i32 4, label %97
  ]

97:                                               ; preds = %95
  store i32 0, ptr %4, align 4
  store i32 1, ptr %11, align 4
  br label %98

98:                                               ; preds = %97, %95
  call void @llvm.lifetime.end.p0(i64 4, ptr %9) #9
  call void @llvm.lifetime.end.p0(i64 8, ptr %8) #9
  %99 = load i32, ptr %4, align 4
  ret i32 %99
}