; Function Attrs: nounwind uwtable
define range(i32 -2147483648, 1) i32 @sch_enc_send(ptr noundef %0, i32 noundef %1, ptr noundef %2) local_unnamed_addr #0 {
  %4 = getelementptr inbounds nuw i8, ptr %0, i64 200
  %5 = load i32, ptr %4, align 8, !tbaa !49
  %6 = icmp ult i32 %1, %5
  br i1 %6, label %8, label %7

7:                                                ; preds = %3
  tail call void (ptr, i32, ptr, ...) @av_log(ptr noundef null, i32 noundef 0, ptr noundef nonnull @.str, ptr noundef nonnull @.str.6, ptr noundef nonnull @.str.2, i32 noundef 2351) #9
  tail call void @abort() #10
  unreachable

8:                                                ; preds = %3
  %9 = getelementptr inbounds nuw i8, ptr %0, i64 192
  %10 = load ptr, ptr %9, align 8, !tbaa !60
  %11 = zext i32 %1 to i64
  %12 = getelementptr inbounds nuw %struct.SchEnc, ptr %10, i64 %11
  %13 = getelementptr inbounds nuw i8, ptr %12, i64 40
  %14 = load i32, ptr %13, align 8, !tbaa !132
  %.not43.not = icmp eq i32 %14, 0
  br i1 %.not43.not, label %.thread, label %.lr.ph

.lr.ph:                                           ; preds = %8
  %15 = getelementptr inbounds nuw i8, ptr %12, i64 32
  %16 = getelementptr inbounds nuw i8, ptr %12, i64 144
  %17 = getelementptr inbounds nuw i8, ptr %12, i64 24
  %18 = getelementptr inbounds nuw i8, ptr %0, i64 176
  %19 = getelementptr inbounds nuw i8, ptr %0, i64 24
  br label %20

20:                                               ; preds = %.lr.ph, %select.unfold
  %indvars.iv = phi i64 [ 0, %.lr.ph ], [ %indvars.iv.next, %select.unfold ]
  %21 = phi i32 [ %14, %.lr.ph ], [ %62, %select.unfold ]
  %22 = load ptr, ptr %15, align 8, !tbaa !150
  %23 = getelementptr inbounds nuw i8, ptr %22, i64 %indvars.iv
  %24 = add i32 %21, -1
  %25 = zext i32 %24 to i64
  %26 = icmp samesign ult i64 %indvars.iv, %25
  br i1 %26, label %27, label %31

27:                                               ; preds = %20
  %28 = load ptr, ptr %16, align 8, !tbaa !104
  %29 = tail call i32 @av_packet_ref(ptr noundef %28, ptr noundef %2) #9
  %30 = icmp slt i32 %29, 0
  br i1 %30, label %.thread, label %31

31:                                               ; preds = %27, %20
  %.028 = phi ptr [ %28, %27 ], [ %2, %20 ]
  %32 = load ptr, ptr %17, align 8, !tbaa !133
  %33 = getelementptr inbounds nuw %struct.SchedulerNode, ptr %32, i64 %indvars.iv
  %.sroa.0.0.copyload = load i64, ptr %33, align 4
  %.sroa.2.0..sroa_idx = getelementptr inbounds nuw i8, ptr %33, i64 8
  %.sroa.2.0.copyload = load i32, ptr %.sroa.2.0..sroa_idx, align 4
  %.sroa.012.0.extract.trunc.i = trunc i64 %.sroa.0.0.copyload to i32
  %.sroa.3.0.extract.shift.i = lshr i64 %.sroa.0.0.copyload, 32
  %34 = load i8, ptr %23, align 1, !tbaa !96
  %.not.i = icmp eq i8 %34, 0
  br i1 %.not.i, label %35, label %enc_send_to_dst.exit.thread.thread

35:                                               ; preds = %31
  %.not21.i = icmp eq ptr %.028, null
  br i1 %.not21.i, label %50, label %36

36:                                               ; preds = %35
  %37 = icmp eq i32 %.sroa.012.0.extract.trunc.i, 2
  br i1 %37, label %38, label %42

38:                                               ; preds = %36
  %39 = load ptr, ptr %19, align 8, !tbaa !35
  %40 = getelementptr inbounds nuw %struct.SchMux, ptr %39, i64 %.sroa.3.0.extract.shift.i
  %41 = tail call fastcc i32 @send_to_mux(ptr noundef %0, ptr noundef %40, i32 noundef %.sroa.2.0.copyload, ptr noundef nonnull %.028)
  br label %47

42:                                               ; preds = %36
  %43 = load ptr, ptr %18, align 8, !tbaa !50
  %44 = getelementptr inbounds nuw %struct.SchDec, ptr %43, i64 %.sroa.3.0.extract.shift.i, i32 5
  %45 = load ptr, ptr %44, align 8, !tbaa !202
  %46 = tail call i32 @tq_send(ptr noundef %45, i32 noundef 0, ptr noundef nonnull %.028) #9
  br label %47

47:                                               ; preds = %42, %38
  %48 = phi i32 [ %41, %38 ], [ %46, %42 ]
  %49 = icmp eq i32 %48, -541478725
  br i1 %49, label %50, label %enc_send_to_dst.exit

50:                                               ; preds = %47, %35
  %51 = icmp eq i32 %.sroa.012.0.extract.trunc.i, 2
  br i1 %51, label %52, label %56

52:                                               ; preds = %50
  %53 = load ptr, ptr %19, align 8, !tbaa !35
  %54 = getelementptr inbounds nuw %struct.SchMux, ptr %53, i64 %.sroa.3.0.extract.shift.i
  %55 = tail call fastcc i32 @send_to_mux(ptr noundef %0, ptr noundef %54, i32 noundef %.sroa.2.0.copyload, ptr noundef null)
  br label %60

56:                                               ; preds = %50
  %57 = load ptr, ptr %18, align 8, !tbaa !50
  %58 = getelementptr inbounds nuw %struct.SchDec, ptr %57, i64 %.sroa.3.0.extract.shift.i, i32 5
  %59 = load ptr, ptr %58, align 8, !tbaa !202
  tail call void @tq_send_finish(ptr noundef %59, i32 noundef 0) #9
  br label %60

60:                                               ; preds = %56, %52
  store i8 1, ptr %23, align 1, !tbaa !96
  br label %enc_send_to_dst.exit.thread.thread

enc_send_to_dst.exit:                             ; preds = %47
  %61 = icmp slt i32 %48, 0
  br i1 %61, label %enc_send_to_dst.exit.thread, label %select.unfold

enc_send_to_dst.exit.thread.thread:               ; preds = %60, %31
  tail call void @av_packet_unref(ptr noundef %.028) #9
  br label %select.unfold

enc_send_to_dst.exit.thread:                      ; preds = %enc_send_to_dst.exit
  tail call void @av_packet_unref(ptr noundef nonnull %.028) #9
  br label %.thread

select.unfold:                                    ; preds = %enc_send_to_dst.exit.thread.thread, %enc_send_to_dst.exit
  %indvars.iv.next = add nuw nsw i64 %indvars.iv, 1
  %62 = load i32, ptr %13, align 8, !tbaa !132
  %63 = zext i32 %62 to i64
  %.not = icmp samesign ult i64 %indvars.iv.next, %63
  br i1 %.not, label %20, label %.thread, !llvm.loop !218

.thread:                                          ; preds = %select.unfold, %27, %8, %enc_send_to_dst.exit.thread
  %spec.select = phi i32 [ %48, %enc_send_to_dst.exit.thread ], [ 0, %8 ], [ 0, %select.unfold ], [ %29, %27 ]
  ret i32 %spec.select
}